target datalayout = "e-m:e-p270:32:32-p271:32:32-p272:64:64-i64:64-i128:128-f80:128-n8:16:32:64-S128"
target triple = "x86_64-pc-linux-gnu"

%struct.buf_writer_t = type { ptr, ptr, ptr, i64, i64, i8 }

; Function Attrs: nounwind uwtable
define void @duckdb_je_buf_writer_flush(ptr noundef %0) #0 {
  %2 = alloca ptr, align 8
  store ptr %0, ptr %2, align 8, !tbaa !8
  %3 = load ptr, ptr %2, align 8, !tbaa !8
  call void @buf_writer_assert(ptr noundef %3)
  %4 = load ptr, ptr %2, align 8, !tbaa !8
  %5 = getelementptr inbounds nuw %struct.buf_writer_t, ptr %4, i32 0, i32 2
  %6 = load ptr, ptr %5, align 8, !tbaa !17
  %7 = icmp eq ptr %6, null
  br i1 %7, label %8, label %9

8:                                                ; preds = %1
  br label %29

9:                                                ; preds = %1
  %10 = load ptr, ptr %2, align 8, !tbaa !8
  %11 = getelementptr inbounds nuw %struct.buf_writer_t, ptr %10, i32 0, i32 2
  %12 = load ptr, ptr %11, align 8, !tbaa !17
  %13 = load ptr, ptr %2, align 8, !tbaa !8
  %14 = getelementptr inbounds nuw %struct.buf_writer_t, ptr %13, i32 0, i32 4
  %15 = load i64, ptr %14, align 8, !tbaa !20
  %16 = getelementptr inbounds nuw i8, ptr %12, i64 %15
  store i8 0, ptr %16, align 1, !tbaa !21
  %17 = load ptr, ptr %2, align 8, !tbaa !8
  %18 = getelementptr inbounds nuw %struct.buf_writer_t, ptr %17, i32 0, i32 0
  %19 = load ptr, ptr %18, align 8, !tbaa !13
  %20 = load ptr, ptr %2, align 8, !tbaa !8
  %21 = getelementptr inbounds nuw %struct.buf_writer_t, ptr %20, i32 0, i32 1
  %22 = load ptr, ptr %21, align 8, !tbaa !16
  %23 = load ptr, ptr %2, align 8, !tbaa !8
  %24 = getelementptr inbounds nuw %struct.buf_writer_t, ptr %23, i32 0, i32 2
  %25 = load ptr, ptr %24, align 8, !tbaa !17
  call void %19(ptr noundef %22, ptr noundef %25)
  %26 = load ptr, ptr %2, align 8, !tbaa !8
  %27 = getelementptr inbounds nuw %struct.buf_writer_t, ptr %26, i32 0, i32 4
  store i64 0, ptr %27, align 8, !tbaa !20
  %28 = load ptr, ptr %2, align 8, !tbaa !8
  call void @buf_writer_assert(ptr noundef %28)
  br label %29

29:                                               ; preds = %9, %8
  ret void
}

; Function Attrs: nounwind uwtable
define internal void @buf_writer_assert(ptr noundef %0) #0 {
  %2 = alloca ptr, align 8
  store ptr %0, ptr %2, align 8, !tbaa !8
  br label %3

3:                                                ; preds = %1
  br label %4

4:                                                ; preds = %3
  br label %5

5:                                                ; preds = %4
  br label %6

6:                                                ; preds = %5
  %7 = load ptr, ptr %2, align 8, !tbaa !8
  %8 = getelementptr inbounds nuw %struct.buf_writer_t, ptr %7, i32 0, i32 2
  %9 = load ptr, ptr %8, align 8, !tbaa !17
  %10 = icmp ne ptr %9, null
  br i1 %10, label %11, label %14

11:                                               ; preds = %6
  br label %12

12:                                               ; preds = %11
  br label %13

13:                                               ; preds = %12
  br label %19

14:                                               ; preds = %6
  br label %15

15:                                               ; preds = %14
  br label %16

16:                                               ; preds = %15
  br label %17

17:                                               ; preds = %16
  br label %18

18:                                               ; preds = %17
  br label %19

19:                                               ; preds = %18, %13
  br label %20

20:                                               ; preds = %19
  br label %21

21:                                               ; preds = %20
  ret void
}

; Function Attrs: nounwind uwtable
define void @duckdb_je_buf_writer_cb(ptr noundef %0, ptr noundef %1) #0 {
  %3 = alloca ptr, align 8
  %4 = alloca ptr, align 8
  %5 = alloca ptr, align 8
  %6 = alloca i32, align 4
  %7 = alloca i64, align 8
  %8 = alloca i64, align 8
  %9 = alloca i64, align 8
  %10 = alloca i64, align 8
  %11 = alloca i64, align 8
  store ptr %0, ptr %3, align 8, !tbaa !8
  store ptr %1, ptr %4, align 8, !tbaa !9
  call void @llvm.lifetime.start.p0(i64 8, ptr %5) #11
  %12 = load ptr, ptr %3, align 8, !tbaa !8
  store ptr %12, ptr %5, align 8, !tbaa !8
  %13 = load ptr, ptr %5, align 8, !tbaa !8
  call void @buf_writer_assert(ptr noundef %13)
  %14 = load ptr, ptr %5, align 8, !tbaa !8
  %15 = getelementptr inbounds nuw %struct.buf_writer_t, ptr %14, i32 0, i32 2
  %16 = load ptr, ptr %15, align 8, !tbaa !17
  %17 = icmp eq ptr %16, null
  br i1 %17, label %18, label %26

18:                                               ; preds = %2
  %19 = load ptr, ptr %5, align 8, !tbaa !8
  %20 = getelementptr inbounds nuw %struct.buf_writer_t, ptr %19, i32 0, i32 0
  %21 = load ptr, ptr %20, align 8, !tbaa !13
  %22 = load ptr, ptr %5, align 8, !tbaa !8
  %23 = getelementptr inbounds nuw %struct.buf_writer_t, ptr %22, i32 0, i32 1
  %24 = load ptr, ptr %23, align 8, !tbaa !16
  %25 = load ptr, ptr %4, align 8, !tbaa !9
  call void %21(ptr noundef %24, ptr noundef %25)
  store i32 1, ptr %6, align 4
  br label %88

26:                                               ; preds = %2
  call void @llvm.lifetime.start.p0(i64 8, ptr %7) #11
  call void @llvm.lifetime.start.p0(i64 8, ptr %8) #11
  call void @llvm.lifetime.start.p0(i64 8, ptr %9) #11
  store i64 0, ptr %7, align 8, !tbaa !11
  %27 = load ptr, ptr %4, align 8, !tbaa !9
  %28 = call i64 @strlen(ptr noundef %27) #12
  store i64 %28, ptr %8, align 8, !tbaa !11
  br label %29

29:                                               ; preds = %80, %26
  %30 = load i64, ptr %7, align 8, !tbaa !11
  %31 = load i64, ptr %8, align 8, !tbaa !11
  %32 = icmp ult i64 %30, %31
  br i1 %32, label %33, label %84

33:                                               ; preds = %29
  %34 = load ptr, ptr %5, align 8, !tbaa !8
  %35 = getelementptr inbounds nuw %struct.buf_writer_t, ptr %34, i32 0, i32 4
  %36 = load i64, ptr %35, align 8, !tbaa !20
  %37 = load ptr, ptr %5, align 8, !tbaa !8
  %38 = getelementptr inbounds nuw %struct.buf_writer_t, ptr %37, i32 0, i32 3
  %39 = load i64, ptr %38, align 8, !tbaa !19
  %40 = icmp eq i64 %36, %39
  br i1 %40, label %41, label %43

41:                                               ; preds = %33
  %42 = load ptr, ptr %5, align 8, !tbaa !8
  call void @duckdb_je_buf_writer_flush(ptr noundef %42)
  br label %43

43:                                               ; preds = %41, %33
  call void @llvm.lifetime.start.p0(i64 8, ptr %10) #11
  %44 = load i64, ptr %8, align 8, !tbaa !11
  %45 = load i64, ptr %7, align 8, !tbaa !11
  %46 = sub i64 %44, %45
  store i64 %46, ptr %10, align 8, !tbaa !11
  call void @llvm.lifetime.start.p0(i64 8, ptr %11) #11
  %47 = load ptr, ptr %5, align 8, !tbaa !8
  %48 = getelementptr inbounds nuw %struct.buf_writer_t, ptr %47, i32 0, i32 3
  %49 = load i64, ptr %48, align 8, !tbaa !19
  %50 = load ptr, ptr %5, align 8, !tbaa !8
  %51 = getelementptr inbounds nuw %struct.buf_writer_t, ptr %50, i32 0, i32 4
  %52 = load i64, ptr %51, align 8, !tbaa !20
  %53 = sub i64 %49, %52
  store i64 %53, ptr %11, align 8, !tbaa !11
  %54 = load i64, ptr %10, align 8, !tbaa !11
  %55 = load i64, ptr %11, align 8, !tbaa !11
  %56 = icmp ult i64 %54, %55
  br i1 %56, label %57, label %59

57:                                               ; preds = %43
  %58 = load i64, ptr %10, align 8, !tbaa !11
  br label %61

59:                                               ; preds = %43
  %60 = load i64, ptr %11, align 8, !tbaa !11
  br label %61

61:                                               ; preds = %59, %57
  %62 = phi i64 [ %58, %57 ], [ %60, %59 ]
  store i64 %62, ptr %9, align 8, !tbaa !11
  %63 = load ptr, ptr %5, align 8, !tbaa !8
  %64 = getelementptr inbounds nuw %struct.buf_writer_t, ptr %63, i32 0, i32 2
  %65 = load ptr, ptr %64, align 8, !tbaa !17
  %66 = load ptr, ptr %5, align 8, !tbaa !8
  %67 = getelementptr inbounds nuw %struct.buf_writer_t, ptr %66, i32 0, i32 4
  %68 = load i64, ptr %67, align 8, !tbaa !20
  %69 = getelementptr inbounds nuw i8, ptr %65, i64 %68
  %70 = load ptr, ptr %4, align 8, !tbaa !9
  %71 = load i64, ptr %7, align 8, !tbaa !11
  %72 = getelementptr inbounds nuw i8, ptr %70, i64 %71
  %73 = load i64, ptr %9, align 8, !tbaa !11
  call void @llvm.memcpy.p0.p0.i64(ptr align 1 %69, ptr align 1 %72, i64 %73, i1 false)
  %74 = load i64, ptr %9, align 8, !tbaa !11
  %75 = load ptr, ptr %5, align 8, !tbaa !8
  %76 = getelementptr inbounds nuw %struct.buf_writer_t, ptr %75, i32 0, i32 4
  %77 = load i64, ptr %76, align 8, !tbaa !20
  %78 = add i64 %77, %74
  store i64 %78, ptr %76, align 8, !tbaa !20
  %79 = load ptr, ptr %5, align 8, !tbaa !8
  call void @buf_writer_assert(ptr noundef %79)
  call void @llvm.lifetime.end.p0(i64 8, ptr %11) #11
  call void @llvm.lifetime.end.p0(i64 8, ptr %10) #11
  br label %80

80:                                               ; preds = %61
  %81 = load i64, ptr %9, align 8, !tbaa !11
  %82 = load i64, ptr %7, align 8, !tbaa !11
  %83 = add i64 %82, %81
  store i64 %83, ptr %7, align 8, !tbaa !11
  br label %29

84:                                               ; preds = %29
  br label %85

85:                                               ; preds = %84
  br label %86

86:                                               ; preds = %85
  br label %87

87:                                               ; preds = %86
  call void @llvm.lifetime.end.p0(i64 8, ptr %9) #11
  call void @llvm.lifetime.end.p0(i64 8, ptr %8) #11
  call void @llvm.lifetime.end.p0(i64 8, ptr %7) #11
  store i32 0, ptr %6, align 4
  br label %88

88:                                               ; preds = %87, %18
  call void @llvm.lifetime.end.p0(i64 8, ptr %5) #11
  %89 = load i32, ptr %6, align 4
  switch i32 %89, label %91 [
    i32 0, label %90
    i32 1, label %90
  ]

90:                                               ; preds = %88, %88
  ret void

91:                                               ; preds = %88
  unreachable
}